ccollections
defaultdict
p0
(cdill.dill
_load_type
p1
(S'ListType'
p2
tp3
Rp4
tp5
Rp6
Vg#stats.out_of_the_box_classification.m2.objectness
p7
(lp8
(dp9
S'jobs'
p10
(lp11
S'26d2b2442544380364a1a0c3924f48f9'
p12
aS'4669f9b103180800d16179548ef8a1b9'
p13
aS'fa92679a35a3721f1be8ef3016e6f0fe'
p14
aS'a26d55865549b0a1e5a55279d1590762'
p15
aS'e5e682943163403c19bc1954e3b9f8b2'
p16
aS'0a55cbc365e2cf3ea58119d1d482abf9'
p17
aS'5ae3876678977150a4bc0b6bf3a9f824'
p18
aS'6ac5656287a2f4267c12d4c22521c0d2'
p19
aS'698f9d395f81a57f9403bf4b30f837c4'
p20
aS'9903e5f77313c8114b53161ee8e468f5'
p21
aS'4feaa05a701001986ad05b6e45d46cff'
p22
aS'a1f2c98d4d0046aa40fbbb9b7b41ba8c'
p23
aS'44d4991e8e7306ecb688dfba2f025b24'
p24
aS'1d289a0a9602e58fb35eff464badd78b'
p25
aS'530b5820fec0dccb33744adea852a8c0'
p26
aS'b1b647dae73e0782432b875425dd9869'
p27
aS'216cdfb7097a6d84911035ce8612188f'
p28
aS'cb146de5535d1fa477511885cf3ccb94'
p29
aS'1c78dd4527ea5d04e5afafebc45334b5'
p30
aS'8351f3ed60ea3fcbcbbe0ce056a2b68e'
p31
asS'time'
p32
S'2016-10-27 09:49:16.167446'
p33
sa(dp34
S'jobs'
p35
(lp36
S'abb321bbacc107e489011f8e825f4192'
p37
aS'059612e4f509dac9e75b037669a4f4b3'
p38
aS'be02dfbb8d15e09ecf348493cf6a4857'
p39
aS'f270ceb7b230774c25806287309d64cd'
p40
aS'165fafbecc3c32008f744184feb0ccbb'
p41
aS'17eeb4bbfabbdc01da50c91c4a7fea39'
p42
aS'cededcfa2b8d29757a31fb3450d9f91f'
p43
aS'04665a44c927b16ae8e2d08905f95bfd'
p44
aS'815c8010de6429fe3bf83af4b2eb166c'
p45
aS'41d4e23ea8ea158425e7f35d279ade63'
p46
aS'351f118e40881c343c6956647ecbbacc'
p47
aS'422958c738e1e7b35a3831d79bb35c5a'
p48
aS'7024ab1ea53e78b2638e8c97a668f348'
p49
aS'c148405b640cbe2907526d4c49e8e0cb'
p50
aS'3fcb5a153a2a8349f2d913663b160f63'
p51
aS'a4d96c52155d5e8d85effb7050937316'
p52
aS'9c0e74cce8841c706ccfb51ebb3c53d3'
p53
aS'b9d01069871d6ca97f000049a7480fb8'
p54
aS'5036267202888fe41752c171bbe975a1'
p55
aS'f637a266299dbbbbcedd4f9100d29b24'
p56
asS'time'
p57
S'2016-10-27 11:31:27.635944'
p58
sa(dp59
S'jobs'
p60
(lp61
S'd25ae2d2eb27e181f75f14f0c1e12e64'
p62
aS'000ab3d3cbf9de55f037802f4ee1342d'
p63
aS'29d001e84550efa22871ff3b04924347'
p64
aS'12dc2d92d9e93e3ae1888e05f7b9ff0f'
p65
aS'6120010df71429c055d261093fd5b1f7'
p66
aS'3013a9a1988b788614fd1b283215dbf6'
p67
aS'91ec2a0e830f4c882f6f70df55a6727f'
p68
aS'8216a486b55a57d78bdd71971b768859'
p69
aS'563079bbfe9dafb38952b5d27fc4e636'
p70
aS'2be90c1d382fe346b6c6f29c58727a31'
p71
aS'dc55340c7fa0a0096bff1abaa05a2158'
p72
aS'802844d97c028e9127ff45cdb261edc7'
p73
aS'87097c27ada8c5d2e75b706ee80f3807'
p74
aS'39d7390aa9d7e0c29b292cd09b832d74'
p75
aS'ec567fddbdb863525c0e031d9cf40bf6'
p76
aS'38123f6ef5adb717eac024cf9f69f772'
p77
aS'ada4279925e00ab9757f07253c39142d'
p78
aS'965162b35fff60ff1fa8b6ac2942fd3e'
p79
aS'4570be392f4bee6481cd29708cbb4a75'
p80
aS'abfae39bb2d5d5fd85e3d36da13a5409'
p81
asS'time'
p82
S'2016-10-27 17:40:11.509955'
p83
sa(dp84
S'jobs'
p85
(lp86
S'0ff7f03d075e78cf679ab9bb65bc60be'
p87
aS'a7a821fecc55ee6d6d52b8f58547c1c8'
p88
aS'867b9f368ceb53936fb52faa49845d28'
p89
aS'd5c9604059eae5fb85c4a9977592181d'
p90
aS'b15febeac865f748dde5550ff7ea3aa3'
p91
aS'646bb91c60d6e9c4ef7e19051bfd5fc7'
p92
aS'3a781a49a70be975b02e9f4157e548f7'
p93
aS'077bc95810fdf687b98d650c2a62824b'
p94
aS'8779a7a693f90963528b2a19118da87a'
p95
aS'f0f8b07991edea3dc5a12a4f44dcd6ce'
p96
aS'5ef98a9580befd9b1c5020ed1ff78522'
p97
aS'4b08acf5d266b0d0cdf7363ffe1bc930'
p98
aS'02e39ad9ce4b2199e2dfa91da52b1bcc'
p99
aS'1c1f92ff5266b84aa4505c0a40985a1d'
p100
aS'c56ca95e6fe6f846f7c6d5712dac9443'
p101
aS'b8994ab64a7aa0dfda8d3c90eb9559e6'
p102
aS'55623b503fd22fcec3d2a6d657ec1fd1'
p103
aS'8a66d168c480743864ec97bb6c7d10f4'
p104
aS'1e886c2dce82d7ad9002d671ff6ae9f1'
p105
aS'ee3145e7d364501a1cc1b10cdd6d4d7f'
p106
asS'time'
p107
S'2016-10-27 19:57:41.239854'
p108
sa(dp109
S'jobs'
p110
(lp111
S'e8d5b94343f500df774ef2db3b0c7246'
p112
aS'1a3f811d9d75864898f499adb5b7c730'
p113
aS'a0c47dc51caa791d9b3e86e50263bad1'
p114
aS'b919254913a00e96f671cdb841c30b0b'
p115
aS'575ca94a2cfab83f1f732dc984210305'
p116
aS'9cbf1cfed6e8f9afff39d25251e2e68f'
p117
aS'2b6cbb50463640ced381ff26827907c4'
p118
aS'5beecf4341790d1a23d58aa67dc8d731'
p119
aS'183a11ee0d0af967562b7b0be7e920a1'
p120
aS'4d8b7c35fad5aa1e660acddd27bbb3e2'
p121
aS'b60822292efc2811c9228d407215aceb'
p122
aS'04bed7a6334f322d9a08a0f6a2c5c4ad'
p123
aS'b60d4db9e765b458bccd3e60a10e1838'
p124
aS'13dbcec40b3aa4267e39aa72a09824e8'
p125
aS'3423e52e308336426707c989dda8514e'
p126
aS'd0e89a6fad690ba2dfc7ccaf8d6de0d3'
p127
aS'6793c46174bfd778b8483845869f31ef'
p128
aS'1f03ad64051dd7e290f2e579410fe8f1'
p129
aS'398553684b4e4949c1c83a29fdb2433b'
p130
aS'd589906b9f5e75a9af37b45fe231304c'
p131
asS'time'
p132
S'2016-10-27 22:30:32.290059'
p133
sas.