ccollections
defaultdict
p0
(cdill.dill
_load_type
p1
(S'ListType'
p2
tp3
Rp4
tp5
Rp6
Vg#stats.out_of_the_box_classification.m2.objectness
p7
(lp8
(dp9
S'jobs'
p10
(lp11
S'26d2b2442544380364a1a0c3924f48f9'
p12
aS'4669f9b103180800d16179548ef8a1b9'
p13
aS'fa92679a35a3721f1be8ef3016e6f0fe'
p14
aS'a26d55865549b0a1e5a55279d1590762'
p15
aS'e5e682943163403c19bc1954e3b9f8b2'
p16
aS'0a55cbc365e2cf3ea58119d1d482abf9'
p17
aS'5ae3876678977150a4bc0b6bf3a9f824'
p18
aS'6ac5656287a2f4267c12d4c22521c0d2'
p19
aS'698f9d395f81a57f9403bf4b30f837c4'
p20
aS'9903e5f77313c8114b53161ee8e468f5'
p21
aS'4feaa05a701001986ad05b6e45d46cff'
p22
aS'a1f2c98d4d0046aa40fbbb9b7b41ba8c'
p23
aS'44d4991e8e7306ecb688dfba2f025b24'
p24
aS'1d289a0a9602e58fb35eff464badd78b'
p25
aS'530b5820fec0dccb33744adea852a8c0'
p26
aS'b1b647dae73e0782432b875425dd9869'
p27
aS'216cdfb7097a6d84911035ce8612188f'
p28
aS'cb146de5535d1fa477511885cf3ccb94'
p29
aS'1c78dd4527ea5d04e5afafebc45334b5'
p30
aS'8351f3ed60ea3fcbcbbe0ce056a2b68e'
p31
asS'time'
p32
S'2016-10-27 09:49:16.167446'
p33
sas.