ccollections
defaultdict
p0
(cdill.dill
_load_type
p1
(S'ListType'
p2
tp3
Rp4
tp5
Rp6
Vg#stats.out_of_the_box_classification.m2.objectness
p7
(lp8
(dp9
S'jobs'
p10
(lp11
S'd3477a15ec28165d66fea7ffbce9c019'
p12
aS'503833137354d19dff5bb62309c21c58'
p13
aS'7abbc06195521c84a05e58747878c9ca'
p14
aS'40c41d0bb897a411805afa9affd97308'
p15
aS'df98a94a51b73d722c11730aa92b070d'
p16
aS'db871d4f78d3f1baaea082bae06fc2b2'
p17
aS'0de4ee942e702fc371fbf841d6080a84'
p18
aS'65d296136166b9f82b6ab7e6634f9fae'
p19
aS'fb837e6cf190bad762b5359860aa3666'
p20
aS'054f95b2446ce8ebe43c106a80990e8b'
p21
aS'be4e11e68608a8f9ac195f23b92f373d'
p22
aS'35fe6ae5050bdc3d633adbbfeec96195'
p23
aS'bb27f2e8d079f5efde97953652009559'
p24
aS'75e64f98762b0465f3c6cedb5395043b'
p25
aS'd816eb2b68dd91a68904af8247604ace'
p26
aS'a8ec79f7cd659dd05940a0b0062a8875'
p27
aS'72db6bc0b22e096bf6bfbe6d9319b7eb'
p28
aS'558d05814fc9ee3f6e58751f1f46ca44'
p29
aS'5c07f4c209a5085cdabe131a69f9d2bb'
p30
aS'06d3aa415522776e94e82a110e3eb8f8'
p31
asS'time'
p32
S'2016-10-30 01:09:06.300952'
p33
sa(dp34
S'jobs'
p35
(lp36
S'd9b0d08fe119ae2a55098e9f2f245a82'
p37
aS'aaa00603eb18c8ee85b3e729b30cc385'
p38
aS'2b85ab1f7ca089ed137a5b1fa5abe4ac'
p39
aS'8abf7ccf5bddc0db335564493a560d46'
p40
aS'7435ed66adf5d145b319a3c1ca40080e'
p41
aS'd99f6b992956b2fa6ae0112c6344cb44'
p42
aS'd3dbe38e522b0d6872933f767f024c52'
p43
aS'c6acbb94c9dd6e442b53e804090c60d9'
p44
aS'9aaf7079d56d340ea810c70ac5e152da'
p45
aS'4c2faa3c27c902cf5f5a3960727b8f95'
p46
aS'700bc258ba5e7b3773dab3095bb8e1ee'
p47
aS'2c9b2899315930e6dd3c9ea06951840b'
p48
aS'88649c1c4abf6bf69089f355dd672ca6'
p49
aS'77964f6385e19c6a3f28ee56a93a26c0'
p50
aS'0f970ade3ab12ded1711f04d9cb09172'
p51
aS'817185fcb33c3ac3a72705cd77a83750'
p52
aS'7b009ccf0f7b1967c68dcf0b10066a49'
p53
aS'dd63de50e77b06adb94ba3b9edad3e88'
p54
aS'55c0ec8d538a506ed7e580a1b6b40cd0'
p55
aS'76e1737d332b61c35b4c0ca88412a20c'
p56
asS'time'
p57
S'2016-10-30 01:42:02.185091'
p58
sa(dp59
S'jobs'
p60
(lp61
S'ecaca0e30a9fca74bfb69fb9ad8e981b'
p62
aS'f4f247c70a013d7132f7e08f40ffa899'
p63
aS'1ee0c03c659481b7815452c8d8191299'
p64
aS'1b6ef22cf6aa54f26f2a8e7fc57dc65d'
p65
aS'986c43a157d0a96fe245d36a191dc424'
p66
aS'c913a1d420497cedb7e472811db56b86'
p67
aS'861ff10c4e15bdbdf9dceff715295adc'
p68
aS'dd91a1b0bb60137b9faf2dde8594038d'
p69
aS'bde3472721867b9e999b598cbdb08fbc'
p70
aS'10ab68b8c8ca50a88d7f99bbd0d688f3'
p71
aS'4d38afd38f8504fb616a82c3f8b839bf'
p72
aS'e399847092c6a4a610562691c44a5d97'
p73
aS'2786d277ef12881a82c6212675a6d7de'
p74
aS'f5a741f512ac5c8c5c4033c532623446'
p75
aS'b903e4c341712463485aac0e708de739'
p76
aS'58322c480b615d2ecf0ef5e4a9849265'
p77
aS'd18b24f24da9271c2bd127466544988c'
p78
aS'efcf049c794ec93fc0687f0588138a32'
p79
aS'3ff4028fbcd618556b3c451ab683bc47'
p80
aS'92fd252258cbc4063a22a5aae38c561f'
p81
asS'time'
p82
S'2016-10-30 08:42:30.301403'
p83
sa(dp84
S'jobs'
p85
(lp86
S'8361d048f12f01315dce1c7fe15130b8'
p87
aS'77b07922a7c00ae226d520b044766358'
p88
aS'b3e7e8ff3614ed3d70733a5b69639330'
p89
aS'09c132c07c74226f7723ca642aa23382'
p90
aS'82426b173fd70e83786f3e41a3c09df0'
p91
aS'f407985533030dfc672463c6dddeeff1'
p92
aS'bc2e3614d0df964b629a65189d779c9b'
p93
aS'c7dc63c918c14c008c954ddd5c347f5c'
p94
aS'218c7e4764f415f8b5c6ca006c373ab3'
p95
aS'a0d48d3e9953b2d9d0a80fbf485db1c1'
p96
aS'bb0945753ceddd4313dee17bf784623c'
p97
aS'0c1aca2538bf1f904b11f535787d9d22'
p98
aS'009fd45501f4f35c89b1e190f186fdfd'
p99
aS'e98d6ff0dcc9a29791c153c83537f50c'
p100
aS'2c10f4945e521acb0f4069903d70e4aa'
p101
aS'9fa52b3bff95ac37e8d951df40cfe065'
p102
aS'987cd76b6dbe35aae278ee38a0417b98'
p103
aS'7737f75b5607f0febd7716cb06da388f'
p104
aS'157aa50db77a12b37acaa38724a49835'
p105
aS'e476b66047f28b1c69aa0d43e4781adc'
p106
asS'time'
p107
S'2016-10-30 08:48:19.645942'
p108
sa(dp109
S'jobs'
p110
(lp111
S'a5d3c94632c754616f6644f3ce2ed02e'
p112
aS'427113454dda2e502536e0a34be5f385'
p113
aS'4fd08753314b6c40ad4827440c8b5d08'
p114
aS'15ed66b2f12237a909231cb01f0473fd'
p115
aS'7a0c458b4c6e5ecec36201f56b817742'
p116
aS'5dac2770c4ebb1e9b92b4e916c75683c'
p117
aS'e8d0e41cc64ba9439755dcdf1258cf4e'
p118
aS'a356716b0b57c275d2f58c07994454b2'
p119
aS'fcaf5fa4d356219e3d6b1a27d2113608'
p120
aS'9c5cc9c315ad13f6e1151200f885d54a'
p121
aS'906d0a3224745e5390bec71a271e8f0f'
p122
aS'70e163a354640bed604e6c31672b8da7'
p123
aS'a44fe90e9613e3a403523faf27e70174'
p124
aS'5dc4670274f2830938bb95e2327c7ffc'
p125
aS'88ffa51bd043e303c501e88c2bfadec1'
p126
aS'bc7cf34cf9b7d4f8a5d3543909d7a97b'
p127
aS'756fddb4fcab8aa79e9e8adbeb815a7a'
p128
aS'337ebbf13884e4b14bb43da83cc2c1a7'
p129
aS'ed3395a7a416568221916b34f743ff8b'
p130
aS'75d44355f283ecb4dc73bdb58b224352'
p131
asS'time'
p132
S'2016-10-30 11:52:10.103064'
p133
sa(dp134
S'jobs'
p135
(lp136
S'baeae56ae14615860589780b3b8dc40b'
p137
aS'f4773b135ba10964a786fc04db09bd72'
p138
aS'5d9daa0516d6ec0bc1b695d9e373bd72'
p139
aS'57fba73c77b5b69299fe3112fa08a284'
p140
aS'f9328c32475adf38a3e7e1bf0f629bca'
p141
aS'21fc703a9382c46271d2adc25119736e'
p142
aS'a839adbc6d206377b9c24e2da2894221'
p143
aS'1e107742abacc28ed99f86ae38579847'
p144
aS'cc3441c19118be73202489b31adf28ca'
p145
aS'b68a63077006115f37f092b5a7c72884'
p146
aS'a79ff9a316d35754b31fab76bb979b69'
p147
aS'bf7c512d782271129545eb9ffbaf169f'
p148
aS'6c19acfe21b9deb513d7a6ae356992ae'
p149
aS'6ca8ddd50ed9fb56595655b4cff520b6'
p150
aS'ad584ea4e0f666304c94cf2aef8feb54'
p151
aS'a1b09666f888583bdf41b9978b805cd7'
p152
aS'a162a56851e5e56b386664922b27f479'
p153
aS'543f75193edaa1d5a2c2fbc5c2c5ec11'
p154
aS'e69eafecfe3752579495a82202165268'
p155
aS'5a9ca6489997148c4b001902584d3d1e'
p156
asS'time'
p157
S'2016-10-30 18:58:55.588473'
p158
sa(dp159
S'jobs'
p160
(lp161
S'e533a87f11b873c61664583580b4c675'
p162
aS'd077d3c2c64c08a54a62b3aeeb8f90cf'
p163
aS'364f79ab666273e7a54820390a00c37f'
p164
aS'e823f393a79eea610da9e34a01d41d0a'
p165
aS'c4bd3b5f8cc6665f86e31b8e6e838782'
p166
aS'5d7e7fbe024aac92c27060009cfb3213'
p167
aS'c776de6a138e87d934ec176b0a7f5003'
p168
aS'359bbe105d45e5718168f016c5ce06fe'
p169
aS'859de27badceed111e359da62d6f2561'
p170
aS'f9ae69da4e31d6409650b6e55b1828f9'
p171
aS'33718a4e706efdcef1e67248811e92a5'
p172
aS'9f741f7d4ebdc30c8415a9fb04b9373a'
p173
aS'2d36d45001f1017e32dae62f00038e03'
p174
aS'60dbf11048ce3369c35613fa84ece8e8'
p175
aS'7ebda635141bdb7d690b2fedbd49250f'
p176
aS'f4e50b31249b79968eb66c32214972b1'
p177
aS'a975298699923fb60a9774b91ad2fc26'
p178
aS'c492d754229c9f4e60c27547dcb1cf6f'
p179
aS'7639609cd11f34199d76ad343666df69'
p180
aS'b4802426d632501a7643a1d84137b5ad'
p181
asS'time'
p182
S'2016-10-30 19:23:17.903733'
p183
sa(dp184
S'jobs'
p185
(lp186
S'd64462707645b69d2ece870c2cfbd9d0'
p187
aS'73fbfb966ce91e0dc4322716a90c1166'
p188
aS'4687d71be398d2bfa64e55ec59d5861f'
p189
aS'1b41bcd438827d56beb8a56fd577280a'
p190
aS'19822e8815ed679403a013e611c6ece5'
p191
aS'f9f79f7231beacec7c406b06c561f365'
p192
aS'0df86cb7d1f5587fcd50034ecf025501'
p193
aS'4ca2ec1d486019c6701aca33fa5f6972'
p194
aS'b2b165014e9e0ad07ac3fd36bfdf9c9a'
p195
aS'0a2cde3776a3a7cb3b5af928cd4370bc'
p196
aS'1d4ee88a7d6913bdab703cefcfce4c11'
p197
aS'5c8e22a489f719ca723351e484ea3d7a'
p198
aS'33b8eca8149611318062e6bf77dd8803'
p199
aS'9dd64624ca3753e2da8764e670fd2f6d'
p200
aS'fc4a1347f7774f4c10c63800d75dfc24'
p201
aS'4c6b9a60db21d87529d2670e71737722'
p202
aS'29a714e05ba0028c0d5c99239e0c1652'
p203
aS'ff496a34e336b3599d11c219d345eccd'
p204
aS'f35639d2d7eb75a80a8d073cf0bb4020'
p205
aS'5490c9854a0749536c26b1af6b6430cc'
p206
asS'time'
p207
S'2016-10-30 21:25:26.224224'
p208
sa(dp209
S'jobs'
p210
(lp211
S'3eba87d1864685ed7bde8766747dd133'
p212
aS'5156fab9d6c319d072fe5919454fb9ab'
p213
aS'c469ef215df722a830934997dc789b54'
p214
aS'a3130bca89d092f1cbe9a648c2f148b4'
p215
aS'2de6c484a2e67505eec25de0e107f5bc'
p216
aS'de5d421a450df107f59b1df86d3b83db'
p217
aS'e62a5af8314d3d0e078f479edd3e7bf6'
p218
aS'046c96977269324890a063da13e6231d'
p219
aS'f6b2a4b7353cfb664a4ab682bb6b668e'
p220
aS'bef730ec2a287b278563ab707370364f'
p221
aS'b2a47e8a9a2ced131cea21b47e51d147'
p222
aS'f618710a51929886e136c74cbc3a4dfc'
p223
aS'715cf77cb6c45d6d71535ff37a7fee6b'
p224
aS'5ba28ee1452c8b47bfdb940c28c57652'
p225
aS'9d3b3b603a40663a7967cfab62b0042d'
p226
aS'60f9a4da42b6cc0b656bdf29fc64e1c0'
p227
aS'638ecd49b12b47dee3604e6e3c254f31'
p228
aS'd506b1ba81e006502a65db6fc5ea3173'
p229
aS'071d2a1d0b4698e6a7a3e6abed453797'
p230
aS'b87f1b1e3e570aaeb50809aec7483271'
p231
asS'time'
p232
S'2016-10-30 23:04:11.621643'
p233
sa(dp234
S'jobs'
p235
(lp236
S'5aeaea63455a2ff6a4e2a4941b003f20'
p237
aS'86f42e2120630fd41312f2acfce98082'
p238
aS'3d26147f62f151e84a3d7bec41f2869a'
p239
aS'aeeb07a4a2fb0115e81feb17c12ae97c'
p240
aS'eff480600aca67dfef940977d4a03bb9'
p241
aS'070a2d418a12f0eafc7ffb3a4b80ffc3'
p242
aS'6e63a794d22330a772e22039a0c9e707'
p243
aS'f5ae788d9bf0168db00204d1f9b359b1'
p244
aS'fe131bc0aff87cca5a4d405bafe81e02'
p245
aS'd89ca8e0a06bb96c055be4b1bbc9a8de'
p246
aS'd8e0961548614d0beffe4ddc1c6a3450'
p247
aS'67d457d3eac7a30a9ba3b5d5e9f510d6'
p248
aS'370bf1cc8e9ff29b6c4c3cbcc6cff752'
p249
aS'3bfeec8af07e609182e4df2f8506db9a'
p250
aS'60e320e718456f754d64bfe401636fdf'
p251
aS'58f946eb00043b02f5a7af7d6c367823'
p252
aS'8fac5431278f5679c30ec92d13f27c58'
p253
aS'54551257fd056d6b549ca7c0e96659f8'
p254
aS'd72f193144e61cc7560c9a7b94e1876f'
p255
aS'2631919412ed9eeb71ff8d456cf1fed3'
p256
asS'time'
p257
S'2016-10-30 23:32:07.130138'
p258
sa(dp259
S'jobs'
p260
(lp261
S'86fb0fe4db2a8c5c26f46856ca0d99ec'
p262
aS'71ba83b477d1aae9deca8f1be9e3fdb7'
p263
aS'd104d03d0748075f4add1286de75cd7e'
p264
aS'32824c59eeff293880cb72ed91c58895'
p265
aS'4f63b1aeb498ba21ec6eca7fa90010bc'
p266
aS'b2c3be07df1c3cc35345897e16c4d31b'
p267
aS'5b40be69b4e6af082dc2edcfef8b859f'
p268
aS'05f912ebda61f273e686fe5bfa4d2ae7'
p269
aS'412ece7842618b407772722d5206e8ab'
p270
aS'79cc14388acc24702dcf5a8340cab99e'
p271
aS'ac2ed4761e1d60a0b3b1cf39ad35e2c2'
p272
aS'1d6745976352babb9fc814e3e57d51b9'
p273
aS'7ce86a0481cb4f4d36cb3c52b451c86a'
p274
aS'273de9d989b969cbfff24539bf358a06'
p275
aS'1b42f3f554f57d62b6813d1cbffee7a2'
p276
aS'7921bd3a9d1762294ccfb57a65a37677'
p277
aS'21ca9ee7c24da1ff22f2b517bf17a28f'
p278
aS'f311c75a5bc86919922284851817075d'
p279
aS'f6f93334c62312e8a8451211c10126d1'
p280
aS'f0472aa1e20b399f686c35989188f3e0'
p281
asS'time'
p282
S'2016-10-31 06:32:02.579047'
p283
sa(dp284
S'jobs'
p285
(lp286
S'3f2ef913e3f358a2295fe7aca1a79992'
p287
aS'30418dbd210f4a8887b8c18a9cd3ec57'
p288
aS'4b47a38ebd47d202562f05db3669bb71'
p289
aS'ddd9fef6ad0af7cb22b3ed141643c96f'
p290
aS'45dee8563ea206c3d9b3869d61981ec9'
p291
aS'3177fb5119b11504deb5ab1cd7664ce5'
p292
aS'8b7274ccceefca39218004f59ec375c7'
p293
aS'2acef6934eabe5a038d88a118ad8e686'
p294
aS'4ecee26e3760d096cc504d59aea84c6e'
p295
aS'fc1973e82ae3b0dc608b98c84477e191'
p296
aS'c45e8333bb42c80e49912a57db983486'
p297
aS'25baeee643e512be95fd44cf929ed385'
p298
aS'bcf170fa777d617141ba8759d77cf2cb'
p299
aS'373380d7b649b2b4ccb5de968b4a8da3'
p300
aS'6db9af35ffa545f28a2d60a06ea3ad35'
p301
aS'1b234ec95dd6578447731385463ff5f1'
p302
aS'a28c95fe8b002307ec0ee0a469bdb4d0'
p303
aS'8ed5c7fa3a883bb81f1468c947ef8588'
p304
aS'da421549f12f30b4e42034662c61cda1'
p305
aS'30de1f428eda63d76d3060f2d84fdad6'
p306
asS'time'
p307
S'2016-10-31 09:29:02.707026'
p308
sa(dp309
S'jobs'
p310
(lp311
S'dcd479447ea58602f97f7cbb94e6ba39'
p312
aS'16cfedf28e29dc3f8890267c2ec593f4'
p313
aS'77af771f2a253aafe19f365f8f2894a3'
p314
aS'9afdf5435f604828bd64a3e864210691'
p315
aS'1e0e8e0feb2f43cd8d2e884f8fdce046'
p316
aS'ce6c1da3df5ab268b93aa8d14c7612f7'
p317
aS'f9c0df9eb1eebb68c7a4cd7dabec4686'
p318
aS'0dc45eafe55782627c95cd8733b3b6e9'
p319
aS'53a5ea6b4f88304e28b42dab536d2bcd'
p320
aS'3f0b82697899ee3ccb7a782108c0b08f'
p321
aS'4e808f11025cfc24c066b3c5ae30da42'
p322
aS'131a1f786fe95e4ff9c1e02260b81b1c'
p323
aS'8e4be2468afd9ab3ff3cb678791cfcf1'
p324
aS'87e6bf6d85ccf7384000df8748ec5847'
p325
aS'ab23dbc6fadf57a2e706268a74aa8833'
p326
aS'7d6c2c3270cdb35defae22d6a88cf932'
p327
aS'6d7a3467a7f90fb97f32872b6c0dc3b8'
p328
aS'34676e8d120321aec294aa006164ef3b'
p329
aS'1fc6f79f99897c3ba9e59f21d6ea8d52'
p330
aS'8865e18284fec95de610ca961b356050'
p331
asS'time'
p332
S'2016-10-31 14:15:20.032717'
p333
sa(dp334
S'jobs'
p335
(lp336
S'a436427488e8368d857bf78e45d4369f'
p337
aS'ea1c70f207552d4253f4cb3737ff526d'
p338
aS'8008c003af71f73b461cafbaa8fb61d1'
p339
aS'3563d1a72e81a053f2a84768807fe86a'
p340
aS'e5f9e8ed227a10d69fe623ead48d4141'
p341
aS'5c999f8ae71d8f3261c078a858086835'
p342
aS'1a48cd983e382da88ae4bc3d37ab655c'
p343
aS'968f651c6b9ff709d50defb386dc3ca9'
p344
aS'436de3813296b7684be7cec6031c9c3a'
p345
aS'76f134d5bd72713381f234c058660756'
p346
aS'34fca96022dce7077979035ac2439c5f'
p347
aS'48f35981b7fa0fb296f4db41d3cef690'
p348
aS'2a24759d11641c156f615a34a570739e'
p349
aS'7766f6d5df3fec33e1f6ee4c4c2f5603'
p350
aS'2a8d95f9e04215092b4f6d2407a4a56e'
p351
aS'8e9b856ba6da1033a733e58f33143ec8'
p352
aS'68273f598780b950b3a06a29c90208a4'
p353
aS'd564aa18e217f8b3fd6bd09158c87b6b'
p354
aS'8b8b6108a7676007ca36b47b3401f40f'
p355
aS'02b676f443860a0955e909dda6dfad87'
p356
asS'time'
p357
S'2016-10-31 14:35:21.872825'
p358
sa(dp359
S'jobs'
p360
(lp361
S'127bbd8eb266c128b510cb64f2d147a5'
p362
aS'02111b26c00e942c32f6a4b93e4c78c2'
p363
aS'1cf8fc1fa34c02f0b40e9840afe712c9'
p364
aS'e46a8a3feeb79a55d672af4941ba5b06'
p365
aS'07dbc560755de953a644d7a58d81f02f'
p366
aS'479e7032ff134c470f1f1b012e583dab'
p367
aS'2af89f15936f61534fea8631e7d3d7ea'
p368
aS'd713f4666023940fcbcd8afc81867524'
p369
aS'eca502477c87ffd79bb5adc57c832668'
p370
aS'bb6697103cbe9a71c028b92a5eb44b93'
p371
aS'a2e66f4bfe4239c7347d59b4e7743c4e'
p372
aS'7f087c72ff16b059ebbf1a57d0c397a1'
p373
aS'7b01e3eb78448c68c321fbed5aaf0c7c'
p374
aS'3e9d272ba1b8fe8655a7fb06d4f8a4d1'
p375
aS'95bce881dab8e8c8e67b32acf89cde95'
p376
aS'318dc1f40318229a460df3c2f6ef5521'
p377
aS'629195d40f7555d29fbe403b9a92be3c'
p378
aS'af861ea05494aeb9d02393346fafb558'
p379
aS'ef8a62e7d6a5eb5f787e63663e830b29'
p380
aS'576929e82647b949b2db2ee672e7824c'
p381
asS'time'
p382
S'2016-10-31 16:10:22.222650'
p383
sa(dp384
S'jobs'
p385
(lp386
S'5dde860697b1d056ccceb20d4877bae1'
p387
aS'66fae8c8e55cc9133a043893ec5e7137'
p388
aS'6be3c9c0948323b5a38fa50e2ba65bc1'
p389
aS'646097cb8aac536518bead742edb9062'
p390
aS'b53fe4a19e471d934368f8e02466942c'
p391
aS'46bdcb77fe016e62a2cee80a9e253297'
p392
aS'cba1d9fdd2738a446a7ea0cf657cd6b7'
p393
aS'0464539440eaf1224882577387c4382f'
p394
aS'8eed271f35ce128f8e129a4fc146ec08'
p395
aS'1999488b4a1f6891baa199ec822ed905'
p396
aS'f43c561f4dccf888b5315f67245e3daf'
p397
aS'8b5418884a2abd37454755bc22763056'
p398
aS'053c09122750d415a29688f91abd78e5'
p399
aS'346980d4cc974e48ab4febb7654f5e30'
p400
aS'927a8e6c21d4d8968a71c466676c1922'
p401
aS'816d06423782c4c3ca66ae19867a1c94'
p402
aS'e904672dd611945238f40aa9cbf88b51'
p403
aS'50d76797021a8c3f698bd96547a5ff30'
p404
aS'555ffb772b87b0a172ff7294cb435532'
p405
aS'6c4ed113e4622f60325927b1c19b6f21'
p406
asS'time'
p407
S'2016-10-31 16:52:07.077941'
p408
sasVg#stats.out_of_the_box_classification.fonts.objectness
p409
(lp410
(dp411
S'jobs'
p412
(lp413
S'a5cccec6877ae0c760db9ae9625df06d'
p414
aS'9b6fcb9bc9ef68e5d6b9157278f79103'
p415
aS'd691db9c251939b099b5f97dad00bd18'
p416
aS'a8c12ef2ab643d83fed202a9b39258e8'
p417
aS'fe0c7710e38d0e1c05838be1c4031eb8'
p418
aS'6003c1ddff236264a2e26f8c1778c660'
p419
aS'e766d57b84d43050162b3be1b7ab367d'
p420
aS'c91f9680c2b798c5f9c13aa957376f68'
p421
aS'5f4302d7570a7bb4c38e17c4e7802b25'
p422
aS'594df62b7e97c6716ae52206d90dd5ae'
p423
aS'235dfa8ebc314e1ab22282c2bc933b65'
p424
aS'32a675cdd1e8d24360c65c8e50c4a22a'
p425
aS'88b313e75fac59f725c243a5784d5d48'
p426
aS'25dd9686ec77fa56fe323db7d3a5715b'
p427
aS'bfd449aee2fd2c5a0ea22f92cf910cc7'
p428
aS'bf163f76cb795fe33aaee7f2f2db136a'
p429
aS'21ef4c31522824c7b99989e1f41c84eb'
p430
aS'1b70a3337c56b065018d59d54d063937'
p431
aS'042ee6cd174c6e5f67dc82151cddec05'
p432
aS'395539e354157cf6888dde5972a76c1e'
p433
asS'time'
p434
S'2016-11-01 17:16:51.805283'
p435
sa(dp436
S'jobs'
p437
(lp438
S'6b486648351b8ca0d5b6b414cc066248'
p439
aS'327a87b2f792511cf23232158c6d85df'
p440
aS'664bbf06e2ea1166e01d2a5e9f572569'
p441
aS'e1161962c04c709f60055ffd6b57b4a2'
p442
aS'0dc3129b9d94e74704615d02d2ee642c'
p443
aS'41bc094a85c8045a7c94f1a094057130'
p444
aS'66f1a1ebf1dd29f33c7bae3ceeefa01b'
p445
aS'9432391093967b10bb92ab04f9ac787d'
p446
aS'3e70f5e389ea9b05e1ce0046a5d0b1d0'
p447
aS'493b07783f41eb227d30f012b2e657f5'
p448
aS'530b6f21dc3ecc6a32be6b540d1fa45b'
p449
aS'9e616413d96cf6bc30194da9ceb50c9b'
p450
aS'1b5d66db1db8e54ff5608c5d4be70ef2'
p451
aS'94ff37a6f36ded313140990c36a9749c'
p452
aS'0cfb12993799d9d54d231ed34644b69a'
p453
aS'8d824c6b46c913fe8c2eab1fdc416a5c'
p454
aS'8e20301c14f57320403bf0509c4a5be6'
p455
aS'd5eaad453e80949f53b7e95b48b5a5e2'
p456
aS'48aaf3a5f6545c9c731dfeaa8cca6cfc'
p457
aS'862d0aba22fbea205492a585a251cede'
p458
asS'time'
p459
S'2016-11-01 18:10:07.618665'
p460
sa(dp461
S'jobs'
p462
(lp463
S'c86cc9913b0c9e9f320e08b6c14d3343'
p464
aS'7c18972a247f1990b6a040d30ba06485'
p465
aS'6d1a55f5800c0960f4b7ed90c6833a65'
p466
aS'877ecce78ac6e80cb48eb0c0a261efd1'
p467
aS'b22a366c06b288774f6cfb7d55b915a6'
p468
aS'5b6f3fef56a9afe8be6b545eebf6403d'
p469
aS'928c6cd2a15c73dd214124c85227f93c'
p470
aS'85f692bd8f501cdb48177f90218c8b2c'
p471
aS'a128366ab49d39dfecaae01e54cd1586'
p472
aS'a449bb1556ee8bdb680ab4630c5c8bb8'
p473
aS'c91e1ade23e9b029a155473ad1db5aac'
p474
aS'4adb12b5ab4658fb89cda941e7f623fd'
p475
aS'8c98ed09df378c375e0ee0b27a761efc'
p476
aS'2d2523875aaa1bd07014d000b46864f5'
p477
aS'43e59e6b3f1b43ec9edf2560fbd2dec4'
p478
aS'd7f767bb799ded67a4d7d8e8085452f3'
p479
aS'627895af6adb669d04a237abb0eff346'
p480
aS'0dc6a9bfd1f6b1b07b04b5eed8f64fd4'
p481
aS'89965c00b37150fcd0b1fbf5a2c8e01a'
p482
aS'f20848157ec97ea327e375208542cdd0'
p483
asS'time'
p484
S'2016-11-01 23:26:59.015188'
p485
sa(dp486
S'jobs'
p487
(lp488
S'78e789d2d1d673fea57896a2cff58c53'
p489
aS'ffd4f30a068dd4940c6345aa81cfa76e'
p490
aS'fd76ca1507dfbab70e919aef279aaa62'
p491
aS'ed244be2acc1ed20669a16c61ff1e35e'
p492
aS'bc0afbfddccc3f66f41b85307b1f45ac'
p493
aS'f924f6acc77b18586004d9f61cfb5146'
p494
aS'66296cfed4db0149de2ca482e63852bb'
p495
aS'0336baaef2c943ae3b3b835c744fe665'
p496
aS'5e17f3e9a7581dd6426c661a190fd0af'
p497
aS'168daebd1f04a7ed5a90ba003516de2b'
p498
aS'f7c1547ae6721b327b4e02c20d87e920'
p499
aS'09814a68b4da5367654927f6489aa818'
p500
aS'1b5f929796b52352a009ab37f602bfbf'
p501
aS'3339f7934ffc1da296ffb965e78c6790'
p502
aS'4c9079b053886433efd568cf385ff07c'
p503
aS'dda6c7da7e27cea1f4b19dbb6b2ff0fa'
p504
aS'68e2029d78393d44082ebccbb48dfb47'
p505
aS'30b833a0b781f2a4c0f736347956b268'
p506
aS'9e69f3934f9bd268d28a0b2333c83738'
p507
aS'e7f4cac6c65ec272945cac001997d3a2'
p508
asS'time'
p509
S'2016-11-02 02:17:48.420586'
p510
sa(dp511
S'jobs'
p512
(lp513
S'13514cab600d25b0d2050d35f74db9ac'
p514
aS'b05b195ae852da811df4e6e6d979216a'
p515
aS'2ea2cb1e00c60f43aeef1f61392db821'
p516
aS'07a6aa8dfbf823f02f3fc63f92aac5b9'
p517
aS'4317bac57b5d25cc288ec9f0e651acdd'
p518
aS'6d1a55f5800c0960f4b7ed90c6833a65'
p519
aS'bd8886c64961e0a37e711bfb1ce08f91'
p520
aS'd669b1e741327c441e6fd567eb497b69'
p521
aS'5b593691e68dfb60a674715d8c284c3d'
p522
aS'b54190b9f637072562d032f7330aad25'
p523
aS'a82be29caa91062925141bded8a0b12a'
p524
aS'492e8c4cc72f4416630cdd704c68f703'
p525
aS'0f6459bc91bd3fe595c17b384f024357'
p526
aS'1ef5b3741bbb3d6fb189cf8fdf787918'
p527
aS'4cfbcc84bce72a50d1a4e6b615f8b28b'
p528
aS'3af06c81cdb8991675ae697aa806fa0f'
p529
aS'5ed019831cdb247f17a73c6a9980efdd'
p530
aS'f3954cf5a6b33e7b7e4659ad90995667'
p531
aS'b0c25143fa78168747f70c64b9e053ad'
p532
aS'b98a890c87907cc93ca64a53bd8ba482'
p533
asS'time'
p534
S'2016-11-02 07:34:02.955434'
p535
sa(dp536
S'jobs'
p537
(lp538
S'96e450ee89b5eccd16d90ae2366381c7'
p539
aS'5f4302d7570a7bb4c38e17c4e7802b25'
p540
aS'b551d06134a0d539b3defed77dad3b6b'
p541
aS'd3e7924efe8b124d82c3e00569b10684'
p542
aS'68e2029d78393d44082ebccbb48dfb47'
p543
aS'4c2a3319882c468c2d2ff118e9494694'
p544
aS'63695e0e9fcab9679e3a98a00151ed2e'
p545
aS'b942f473f6852c0235425a651d548b3a'
p546
aS'17d2a03fdb1841730aaf73f99d9ca7df'
p547
aS'6d1a55f5800c0960f4b7ed90c6833a65'
p548
aS'5b7f95b4b71cc2515f70bcce33f7ee72'
p549
aS'c93a2006f22b7fa896806e98449c5bcb'
p550
aS'c821dbdb19b0158b709b700c48eb4a1b'
p551
aS'3663f86f85f7a950fa369af8e8fffb9b'
p552
aS'8be0b01a15d92e93f6332254ba4f79a7'
p553
aS'a019b5e2931a3f3f6987e7e2f0cbbd47'
p554
aS'41bc094a85c8045a7c94f1a094057130'
p555
aS'd0bf9fa50b1f92fff3ab6293508bd73f'
p556
aS'4f244073a89e945af6a522213a861022'
p557
aS'db3deb1d901065e71677b2db13aac981'
p558
asS'time'
p559
S'2016-11-02 10:43:36.645432'
p560
sa(dp561
S'jobs'
p562
(lp563
S'664bbf06e2ea1166e01d2a5e9f572569'
p564
aS'055e082de9d18c213d5756206a2d46f4'
p565
aS'2e9786f426c271e4424c8c7806e66eff'
p566
aS'fe0c7710e38d0e1c05838be1c4031eb8'
p567
aS'3af6abe2bc8f2e2bc207661f44646ec8'
p568
aS'787bb82f49727ad57994f8a848c75602'
p569
aS'091cf8db7f816e628bf21761a2ac096c'
p570
aS'59b81e948a7c43cef0e71e4c039b98b0'
p571
aS'83fef7f9abea696866ebdcb9bcc0c36a'
p572
aS'75fb957bcdd93632ee4d76737e9b2db2'
p573
aS'd9b900172b39d69fd8ac8bbd9d82f47f'
p574
aS'73c5a0e830dac60432e863caabc2989a'
p575
aS'2757fd269203bd9b7fa84bbc1b7c1c3e'
p576
aS'dc359b1931d029032c3ac36d7e81b5f7'
p577
aS'664bbf06e2ea1166e01d2a5e9f572569'
p578
aS'dcfd6b310ed648d8a57cc0000dcbbfca'
p579
aS'a019b5e2931a3f3f6987e7e2f0cbbd47'
p580
aS'51fa8e610e4626323ef9a2f45f8b2e4d'
p581
aS'51147a6d7c0f179d9f5aa98ed9bb017f'
p582
aS'b98b2a1e7efd4ffcc0648d2f66fb83e7'
p583
asS'time'
p584
S'2016-11-02 13:16:07.560301'
p585
sa(dp586
S'jobs'
p587
(lp588
S'8fe3d7e4b26da00cc5b15970ceec71e1'
p589
aS'fb0b3aa5bf05a5ec6637d6cadaca8fb8'
p590
aS'68e2029d78393d44082ebccbb48dfb47'
p591
aS'553ce6bc295ef282fd6c7de32311b571'
p592
aS'631e473a35a42c94ab0ee882a2c6f3fd'
p593
aS'fd4c8938ca3d50fbbe300a5c8de11637'
p594
aS'33b5df0ed079dcb502af323f20821bea'
p595
aS'f240e073404b8b18270b3e8daa998bdb'
p596
aS'819ba4b25f3b59156049dbfd9c5e6f30'
p597
aS'13e61ad92e5bcf493aecd35ac0560d02'
p598
aS'78dc9967f36c9a505fb2810f83cb5ff3'
p599
aS'b97fcf8b8d49e0e84292807b041fc9c1'
p600
aS'664bbf06e2ea1166e01d2a5e9f572569'
p601
aS'664bbf06e2ea1166e01d2a5e9f572569'
p602
aS'af7e6fe2136022390f55efec17bdde2d'
p603
aS'04a681ecac6232e9b7bd86929069f917'
p604
aS'05fef6d53c6bf1e3a1f5b21fca0931d4'
p605
aS'4b23d08c0e9ce983337630ebc5004307'
p606
aS'e5bc3571b4db9eb5cc57de749419d7ab'
p607
aS'c4801ebe6370c316e5873de548627b6e'
p608
asS'time'
p609
S'2016-11-02 13:18:02.055533'
p610
sa(dp611
S'jobs'
p612
(lp613
S'a019b5e2931a3f3f6987e7e2f0cbbd47'
p614
aS'bd90b68c90fd425f3c4371bbb3733f91'
p615
aS'07f99338c7ce49eb10a0ef8e9c9d6776'
p616
aS'46cfb54e6745040be7a868fd9c1677c0'
p617
aS'8c995e53770807da25a521a9d05c0841'
p618
aS'344919ea601f28cb15ec999393e41cc5'
p619
aS'184788f8296f7bc0a33a0d8912ff02cd'
p620
aS'a019b5e2931a3f3f6987e7e2f0cbbd47'
p621
aS'bd8886c64961e0a37e711bfb1ce08f91'
p622
aS'52567a7684c407a6f30f0a6eea9bfc3d'
p623
aS'76449a2a7b54e797893ab6288dd9e21f'
p624
aS'5f4302d7570a7bb4c38e17c4e7802b25'
p625
aS'5f4302d7570a7bb4c38e17c4e7802b25'
p626
aS'41bc094a85c8045a7c94f1a094057130'
p627
aS'267754149190e82f5e8a4e404d724388'
p628
aS'dd68b4f1e649a4e347a12f5ff517ed80'
p629
aS'806c1e3c1e5c2260f004699084656ead'
p630
aS'726bbd10fab0e83e640ac67a19802620'
p631
aS'83298602c0ae998b30978dc5e9735cdd'
p632
aS'5f4302d7570a7bb4c38e17c4e7802b25'
p633
asS'time'
p634
S'2016-11-02 21:36:56.497626'
p635
sa(dp636
S'jobs'
p637
(lp638
S'6d1a55f5800c0960f4b7ed90c6833a65'
p639
aS'41bc094a85c8045a7c94f1a094057130'
p640
aS'a019b5e2931a3f3f6987e7e2f0cbbd47'
p641
aS'5f4302d7570a7bb4c38e17c4e7802b25'
p642
aS'bad85ae49480a27f431e4d5cefe62fbd'
p643
aS'ac03962a2c11a9a722c99448a04576c5'
p644
aS'3d6e8b64a4ba05683234227879a8ae1d'
p645
aS'454a34322d126aa5fe960a42c06f5512'
p646
aS'983b6fc07620880f0ca5f650e174f0db'
p647
aS'5f4302d7570a7bb4c38e17c4e7802b25'
p648
aS'a1c11edb0282f918d8e9bd3d20d21021'
p649
aS'6f3f7b8f22faf3b30a789feebd3363c4'
p650
aS'31967d2ad6ab3d28c0b6e48f49c21601'
p651
aS'92fc0a04f61b510e1c38e9892ab663e2'
p652
aS'322fccb50ac304787132f54964b5b49a'
p653
aS'afabfa9b0731607edfbe905e1daaced7'
p654
aS'404cff6bbd36f648c0e7c0fb2b2ac74d'
p655
aS'5b593691e68dfb60a674715d8c284c3d'
p656
aS'21057edada99f5d81f1414d3de158df4'
p657
aS'153d8c38e6a620bd478b73cd0038cea1'
p658
asS'time'
p659
S'2016-11-02 22:13:04.542380'
p660
sa(dp661
S'jobs'
p662
(lp663
S'6f3f7b8f22faf3b30a789feebd3363c4'
p664
aS'54c6e0c60ff5a624dff85dad6e8ef51b'
p665
aS'f6e448a88145c54564a4a124d190a379'
p666
aS'68e2029d78393d44082ebccbb48dfb47'
p667
aS'547538a75a63f78e02616b605d9ac5de'
p668
aS'eec4dcc1c35c8c069e4ead9b8df91e73'
p669
aS'bffafcc445e5f9becfffa0c324db6a6a'
p670
aS'611a97354b037a1293a44d7957cad447'
p671
aS'fa25e050459a92049b0e0ba1f555cac1'
p672
aS'ecd29f4f2759e1616a49ebb5f807d5d7'
p673
aS'5b593691e68dfb60a674715d8c284c3d'
p674
aS'6c761ed85005ba530a636fcc2a751c1d'
p675
aS'bdfedeafe7dfdd8bac32c38d37765456'
p676
aS'e740879c8641bb850ac10bf6186f62ee'
p677
aS'1ddc428e2293035f49de7c93d8ae54bc'
p678
aS'68e2029d78393d44082ebccbb48dfb47'
p679
aS'31a13a627a5903e5248f2f12dcb78748'
p680
aS'54ad46ad3227c59d11870f0110dc19ea'
p681
aS'2927e1c46c9b4a92683dcc3718829dfc'
p682
aS'd255b86d14f241cc962067959b69212f'
p683
asS'time'
p684
S'2016-11-02 23:11:18.224093'
p685
sa(dp686
S'jobs'
p687
(lp688
S'9656537850d3fb8919f770f9050f0bfe'
p689
aS'a48f826b2472269762a17da6331e1452'
p690
aS'e1d2e98a147143e2512f74d19b1dd5bd'
p691
aS'01234626fcb36d946c5f7378561a7999'
p692
aS'6f3f7b8f22faf3b30a789feebd3363c4'
p693
aS'a3caec6a1333e2ab6550a356cb4b773c'
p694
aS'88b313e75fac59f725c243a5784d5d48'
p695
aS'0cf1058fc7b934487e4e7d774b7b5492'
p696
aS'356c06f233fc8a2cd44de87deb6494e3'
p697
aS'cde0706b22b8f06fcc864ace53ed56fb'
p698
aS'f784416a8222fc562b8ae7e57216df02'
p699
aS'649882deb53f7c22b58d29cab4281cd2'
p700
aS'6d1a55f5800c0960f4b7ed90c6833a65'
p701
aS'4e322bc68e46838e38e61dc287e92af2'
p702
aS'dbc008b0929963ce76a02dfc51f08984'
p703
aS'af740891678248efe8dbe1c107f1a8c8'
p704
aS'f784416a8222fc562b8ae7e57216df02'
p705
aS'95cbe631f9ce5d1aea05eed25cd28b82'
p706
aS'53479e4c64879cd3d7b95974970c1f80'
p707
aS'8be501864a173e7c147d66fbb482d0c5'
p708
asS'time'
p709
S'2016-11-02 23:20:49.420998'
p710
sas.